target datalayout = "e-m:e-p270:32:32-p271:32:32-p272:64:64-i64:64-i128:128-f80:128-n8:16:32:64-S128"
target triple = "x86_64-pc-linux-gnu"

@.str = private unnamed_addr constant [10 x i8] c"blast_mul\00", align 1
@.str.1 = private unnamed_addr constant [66 x i8] c"(default: true) bit-blast multipliers (and dividers, remainders).\00", align 1
@.str.2 = private unnamed_addr constant [10 x i8] c"blast_add\00", align 1
@.str.3 = private unnamed_addr constant [34 x i8] c"(default: true) bit-blast adders.\00", align 1
@.str.4 = private unnamed_addr constant [12 x i8] c"blast_quant\00", align 1
@.str.5 = private unnamed_addr constant [49 x i8] c"(default: false) bit-blast quantified variables.\00", align 1
@.str.6 = private unnamed_addr constant [11 x i8] c"blast_full\00", align 1
@.str.7 = private unnamed_addr constant [147 x i8] c"(default: false) bit-blast any term with bit-vector sort, this option will make E-matching ineffective in any pattern containing bit-vector terms.\00", align 1

; Function Attrs: mustprogress uwtable
define hidden void @_ZN22bit_blaster_simplifier20collect_param_descrsER12param_descrs(ptr noundef nonnull align 8 dereferenceable(56) %0, ptr noundef nonnull align 8 dereferenceable(8) %1) unnamed_addr #4 align 2 {
  %3 = alloca ptr, align 8
  %4 = alloca ptr, align 8
  store ptr %0, ptr %3, align 8, !tbaa !3
  store ptr %1, ptr %4, align 8, !tbaa !10
  %5 = load ptr, ptr %4, align 8, !tbaa !10
  call void @_Z17insert_max_memoryR12param_descrs(ptr noundef nonnull align 8 dereferenceable(8) %5)
  %6 = load ptr, ptr %4, align 8, !tbaa !10
  call void @_Z16insert_max_stepsR12param_descrs(ptr noundef nonnull align 8 dereferenceable(8) %6)
  %7 = load ptr, ptr %4, align 8, !tbaa !10
  call void @_ZN12param_descrs6insertEPKc12cmd_arg_kindS1_S1_S1_(ptr noundef nonnull align 8 dereferenceable(8) %7, ptr noundef @.str, i32 noundef 1, ptr noundef @.str.1, ptr noundef null, ptr noundef null)
  %8 = load ptr, ptr %4, align 8, !tbaa !10
  call void @_ZN12param_descrs6insertEPKc12cmd_arg_kindS1_S1_S1_(ptr noundef nonnull align 8 dereferenceable(8) %8, ptr noundef @.str.2, i32 noundef 1, ptr noundef @.str.3, ptr noundef null, ptr noundef null)
  %9 = load ptr, ptr %4, align 8, !tbaa !10
  call void @_ZN12param_descrs6insertEPKc12cmd_arg_kindS1_S1_S1_(ptr noundef nonnull align 8 dereferenceable(8) %9, ptr noundef @.str.4, i32 noundef 1, ptr noundef @.str.5, ptr noundef null, ptr noundef null)
  %10 = load ptr, ptr %4, align 8, !tbaa !10
  call void @_ZN12param_descrs6insertEPKc12cmd_arg_kindS1_S1_S1_(ptr noundef nonnull align 8 dereferenceable(8) %10, ptr noundef @.str.6, i32 noundef 1, ptr noundef @.str.7, ptr noundef null, ptr noundef null)
  ret void
}