; Function Attrs: mustprogress uwtable
define hidden void @_ZN22bit_blaster_simplifier20collect_param_descrsER12param_descrs(ptr nonnull readnone align 8 captures(none) %0, ptr noundef nonnull align 8 dereferenceable(8) %1) unnamed_addr #3 align 2 {
  tail call void @_Z17insert_max_memoryR12param_descrs(ptr noundef nonnull align 8 dereferenceable(8) %1)
  tail call void @_Z16insert_max_stepsR12param_descrs(ptr noundef nonnull align 8 dereferenceable(8) %1)
  tail call void @_ZN12param_descrs6insertEPKc12cmd_arg_kindS1_S1_S1_(ptr noundef nonnull align 8 dereferenceable(8) %1, ptr noundef nonnull @.str, i32 noundef 1, ptr noundef nonnull @.str.1, ptr noundef null, ptr noundef null)
  tail call void @_ZN12param_descrs6insertEPKc12cmd_arg_kindS1_S1_S1_(ptr noundef nonnull align 8 dereferenceable(8) %1, ptr noundef nonnull @.str.2, i32 noundef 1, ptr noundef nonnull @.str.3, ptr noundef null, ptr noundef null)
  tail call void @_ZN12param_descrs6insertEPKc12cmd_arg_kindS1_S1_S1_(ptr noundef nonnull align 8 dereferenceable(8) %1, ptr noundef nonnull @.str.4, i32 noundef 1, ptr noundef nonnull @.str.5, ptr noundef null, ptr noundef null)
  tail call void @_ZN12param_descrs6insertEPKc12cmd_arg_kindS1_S1_S1_(ptr noundef nonnull align 8 dereferenceable(8) %1, ptr noundef nonnull @.str.6, i32 noundef 1, ptr noundef nonnull @.str.7, ptr noundef null, ptr noundef null)
  ret void
}